target datalayout = "e-m:e-p270:32:32-p271:32:32-p272:64:64-i64:64-i128:128-f80:128-n8:16:32:64-S128"
target triple = "x86_64-pc-linux-gnu"

%struct._zend_executor_globals = type { %struct._zval_struct, %struct._zval_struct, [32 x ptr], ptr, ptr, %struct._zend_array, %struct._zend_array, ptr, i32, i32, ptr, ptr, ptr, ptr, ptr, ptr, i64, ptr, ptr, i32, i32, i64, i32, i32, i32, i8, i8, %struct.zend_atomic_bool_s, %struct.zend_atomic_bool_s, ptr, i64, ptr, ptr, %struct._zend_array, %struct._zend_array, i32, i8, %struct._zval_struct, %struct._zval_struct, %struct._zend_stack, %struct._zend_stack, %struct._zend_stack, ptr, i32, i32, i64, ptr, ptr, ptr, %struct._zend_objects_store, ptr, ptr, ptr, [3 x %struct._zend_op], ptr, i8, i8, i64, i32, i32, ptr, [16 x %struct._HashTableIterator], ptr, %union._zend_function, %struct._zend_op, %struct._zend_array, i64, %struct.zend_get_gc_buffer, ptr, ptr, ptr, i64, i8, i32, ptr, ptr, i64, %struct._zend_call_stack, i64, i64, [6 x ptr] }
%struct.zend_atomic_bool_s = type { i8 }
%struct._zval_struct = type { %union._zend_value, %union.anon.9, %union.anon.12 }
%union._zend_value = type { i64 }
%union.anon.9 = type { i32 }
%union.anon.12 = type { i32 }
%struct._zend_stack = type { i32, i32, i32, ptr }
%struct._zend_objects_store = type { ptr, i32, i32, i32 }
%struct._HashTableIterator = type { ptr, i32, i32 }
%union._zend_function = type { %struct._zend_op_array }
%struct._zend_op_array = type { i8, [3 x i8], i32, ptr, ptr, ptr, i32, i32, ptr, ptr, ptr, ptr, i32, i32, i32, i32, ptr, ptr, ptr, ptr, ptr, i32, i32, ptr, ptr, ptr, i32, i32, i32, i32, ptr, ptr, [6 x ptr] }
%struct._zend_op = type { ptr, %union._znode_op, %union._znode_op, %union._znode_op, i32, i32, i8, i8, i8, i8 }
%union._znode_op = type { i32 }
%struct._zend_array = type { %struct._zend_refcounted_h, %union.anon.1, i32, %union.anon.2, i32, i32, i32, i32, i64, ptr }
%struct._zend_refcounted_h = type { i32, %union.anon.0 }
%union.anon.0 = type { i32 }
%union.anon.1 = type { i32 }
%union.anon.2 = type { ptr }
%struct.zend_get_gc_buffer = type { ptr, ptr, ptr }
%struct._zend_call_stack = type { ptr, i64 }
%struct._zend_fcall_info_cache = type { ptr, ptr, ptr, ptr, ptr }
%struct.xml_parser = type { ptr, ptr, %struct._zval_struct, ptr, %struct._zend_fcall_info_cache, %struct._zend_fcall_info_cache, %struct._zend_fcall_info_cache, %struct._zend_fcall_info_cache, %struct._zend_fcall_info_cache, %struct._zend_fcall_info_cache, %struct._zend_fcall_info_cache, %struct._zend_fcall_info_cache, %struct._zend_fcall_info_cache, %struct._zend_fcall_info_cache, %struct._zval_struct, %struct._zval_struct, i32, i32, i32, ptr, ptr, i8, i8, i8, i8, i8, ptr, %struct._zend_object }
%struct._zend_object = type { %struct._zend_refcounted_h, i32, ptr, ptr, ptr, [1 x %struct._zval_struct] }
%struct._zend_execute_data = type { ptr, ptr, ptr, ptr, %struct._zval_struct, ptr, ptr, ptr, ptr }
%struct._zend_fcall_info = type { i64, %struct._zval_struct, ptr, ptr, ptr, i32, ptr }

@xml_parser_ce = internal global ptr null, align 8
@executor_globals = external global %struct._zend_executor_globals, align 8
@.str.31 = private unnamed_addr constant [6 x i8] c"OF!F!\00", align 1
@.str.32 = private unnamed_addr constant [5 x i8] c"OF!S\00", align 1
@.str.33 = private unnamed_addr constant [5 x i8] c"OSF!\00", align 1
@.str.34 = private unnamed_addr constant [4 x i8] c"OSS\00", align 1
@.str.35 = private unnamed_addr constant [4 x i8] c"Ozz\00", align 1
@.str.36 = private unnamed_addr constant [37 x i8] c"must be of type callable|string|null\00", align 1

; Function Attrs: nounwind uwtable
define internal ptr @xml_parser_from_obj(ptr noundef %0) #0 {
  %2 = alloca ptr, align 8
  store ptr %0, ptr %2, align 8
  %3 = load ptr, ptr %2, align 8
  %4 = getelementptr inbounds i8, ptr %3, i64 -520
  ret ptr %4
}

; Function Attrs: nounwind uwtable
define hidden void @zif_xml_set_element_handler(ptr noundef %0, ptr noundef %1) #0 {
  %3 = alloca ptr, align 8
  %4 = alloca ptr, align 8
  %5 = alloca ptr, align 8
  %6 = alloca ptr, align 8
  %7 = alloca ptr, align 8
  %8 = alloca %struct._zend_fcall_info, align 8
  %9 = alloca %struct._zend_fcall_info_cache, align 8
  %10 = alloca %struct._zend_fcall_info, align 8
  %11 = alloca %struct._zend_fcall_info_cache, align 8
  %12 = alloca ptr, align 8
  %13 = alloca ptr, align 8
  %14 = alloca i8, align 1
  %15 = alloca i8, align 1
  %16 = alloca i8, align 1
  %17 = alloca ptr, align 8
  %18 = alloca ptr, align 8
  store ptr %0, ptr %4, align 8
  store ptr %1, ptr %5, align 8
  call void @llvm.memset.p0.i64(ptr align 8 %8, i8 0, i64 64, i1 false)
  call void @llvm.memset.p0.i64(ptr align 8 %9, i8 0, i64 40, i1 false)
  call void @llvm.memset.p0.i64(ptr align 8 %10, i8 0, i64 64, i1 false)
  call void @llvm.memset.p0.i64(ptr align 8 %11, i8 0, i64 40, i1 false)
  store ptr null, ptr %12, align 8
  store ptr null, ptr %13, align 8
  %19 = load ptr, ptr %4, align 8
  %20 = getelementptr inbounds %struct._zend_execute_data, ptr %19, i32 0, i32 4
  %21 = getelementptr inbounds %struct._zval_struct, ptr %20, i32 0, i32 2
  %22 = load i32, ptr %21, align 4
  %23 = load ptr, ptr @xml_parser_ce, align 8
  %24 = call i32 (i32, i32, ptr, ...) @zend_parse_parameters_ex(i32 noundef 2, i32 noundef %22, ptr noundef @.str.31, ptr noundef %7, ptr noundef %23, ptr noundef %8, ptr noundef %9, ptr noundef %10, ptr noundef %11)
  %25 = icmp eq i32 %24, 0
  br i1 %25, label %26, label %31

26:                                               ; preds = %2
  %27 = load ptr, ptr %7, align 8
  %28 = getelementptr inbounds %struct._zval_struct, ptr %27, i32 0, i32 0
  %29 = load ptr, ptr %28, align 8
  %30 = call ptr @xml_parser_from_obj(ptr noundef %29)
  store ptr %30, ptr %6, align 8
  br label %168

31:                                               ; preds = %2
  call void @zend_release_fcall_info_cache(ptr noundef %9)
  call void @zend_release_fcall_info_cache(ptr noundef %11)
  %32 = load ptr, ptr %4, align 8
  %33 = getelementptr inbounds %struct._zend_execute_data, ptr %32, i32 0, i32 4
  %34 = getelementptr inbounds %struct._zval_struct, ptr %33, i32 0, i32 2
  %35 = load i32, ptr %34, align 4
  %36 = load ptr, ptr @xml_parser_ce, align 8
  %37 = call i32 (i32, i32, ptr, ...) @zend_parse_parameters_ex(i32 noundef 2, i32 noundef %35, ptr noundef @.str.32, ptr noundef %7, ptr noundef %36, ptr noundef %8, ptr noundef %9, ptr noundef %13)
  %38 = icmp eq i32 %37, 0
  br i1 %38, label %39, label %60

39:                                               ; preds = %31
  %40 = load ptr, ptr %7, align 8
  %41 = getelementptr inbounds %struct._zval_struct, ptr %40, i32 0, i32 0
  %42 = load ptr, ptr %41, align 8
  %43 = call ptr @xml_parser_from_obj(ptr noundef %42)
  store ptr %43, ptr %6, align 8
  %44 = load ptr, ptr %6, align 8
  %45 = getelementptr inbounds %struct.xml_parser, ptr %44, i32 0, i32 3
  %46 = load ptr, ptr %45, align 8
  %47 = load ptr, ptr %13, align 8
  %48 = call zeroext i1 @php_xml_check_string_method_arg(i32 noundef 3, ptr noundef %46, ptr noundef %47, ptr noundef %11)
  %49 = zext i1 %48 to i8
  store i8 %49, ptr %14, align 1
  %50 = load i8, ptr %14, align 1
  %51 = trunc i8 %50 to i1
  %52 = zext i1 %51 to i32
  %53 = icmp eq i32 %52, 0
  br i1 %53, label %54, label %59

54:                                               ; preds = %39
  call void @zend_release_fcall_info_cache(ptr noundef %9)
  call void @zend_release_fcall_info_cache(ptr noundef %11)
  br label %55

55:                                               ; preds = %54
  %56 = load ptr, ptr getelementptr inbounds (%struct._zend_executor_globals, ptr @executor_globals, i32 0, i32 50), align 8
  %57 = icmp ne ptr %56, null
  call void @llvm.assume(i1 %57)
  br label %181

58:                                               ; No predecessors!
  br label %59

59:                                               ; preds = %58, %39
  br label %167

60:                                               ; preds = %31
  %61 = load ptr, ptr %4, align 8
  %62 = getelementptr inbounds %struct._zend_execute_data, ptr %61, i32 0, i32 4
  %63 = getelementptr inbounds %struct._zval_struct, ptr %62, i32 0, i32 2
  %64 = load i32, ptr %63, align 4
  %65 = load ptr, ptr @xml_parser_ce, align 8
  %66 = call i32 (i32, i32, ptr, ...) @zend_parse_parameters_ex(i32 noundef 2, i32 noundef %64, ptr noundef @.str.33, ptr noundef %7, ptr noundef %65, ptr noundef %12, ptr noundef %10, ptr noundef %11)
  %67 = icmp eq i32 %66, 0
  br i1 %67, label %68, label %89

68:                                               ; preds = %60
  %69 = load ptr, ptr %7, align 8
  %70 = getelementptr inbounds %struct._zval_struct, ptr %69, i32 0, i32 0
  %71 = load ptr, ptr %70, align 8
  %72 = call ptr @xml_parser_from_obj(ptr noundef %71)
  store ptr %72, ptr %6, align 8
  %73 = load ptr, ptr %6, align 8
  %74 = getelementptr inbounds %struct.xml_parser, ptr %73, i32 0, i32 3
  %75 = load ptr, ptr %74, align 8
  %76 = load ptr, ptr %12, align 8
  %77 = call zeroext i1 @php_xml_check_string_method_arg(i32 noundef 2, ptr noundef %75, ptr noundef %76, ptr noundef %9)
  %78 = zext i1 %77 to i8
  store i8 %78, ptr %15, align 1
  %79 = load i8, ptr %15, align 1
  %80 = trunc i8 %79 to i1
  %81 = zext i1 %80 to i32
  %82 = icmp eq i32 %81, 0
  br i1 %82, label %83, label %88

83:                                               ; preds = %68
  call void @zend_release_fcall_info_cache(ptr noundef %9)
  call void @zend_release_fcall_info_cache(ptr noundef %11)
  br label %84

84:                                               ; preds = %83
  %85 = load ptr, ptr getelementptr inbounds (%struct._zend_executor_globals, ptr @executor_globals, i32 0, i32 50), align 8
  %86 = icmp ne ptr %85, null
  call void @llvm.assume(i1 %86)
  br label %181

87:                                               ; No predecessors!
  br label %88

88:                                               ; preds = %87, %68
  br label %166

89:                                               ; preds = %60
  %90 = load ptr, ptr %4, align 8
  %91 = getelementptr inbounds %struct._zend_execute_data, ptr %90, i32 0, i32 4
  %92 = getelementptr inbounds %struct._zval_struct, ptr %91, i32 0, i32 2
  %93 = load i32, ptr %92, align 4
  %94 = load ptr, ptr @xml_parser_ce, align 8
  %95 = call i32 (i32, i32, ptr, ...) @zend_parse_parameters_ex(i32 noundef 2, i32 noundef %93, ptr noundef @.str.34, ptr noundef %7, ptr noundef %94, ptr noundef %12, ptr noundef %13)
  %96 = icmp eq i32 %95, 0
  br i1 %96, label %97, label %134

97:                                               ; preds = %89
  call void @zend_release_fcall_info_cache(ptr noundef %9)
  call void @zend_release_fcall_info_cache(ptr noundef %11)
  %98 = load ptr, ptr %7, align 8
  %99 = getelementptr inbounds %struct._zval_struct, ptr %98, i32 0, i32 0
  %100 = load ptr, ptr %99, align 8
  %101 = call ptr @xml_parser_from_obj(ptr noundef %100)
  store ptr %101, ptr %6, align 8
  %102 = load ptr, ptr %6, align 8
  %103 = getelementptr inbounds %struct.xml_parser, ptr %102, i32 0, i32 3
  %104 = load ptr, ptr %103, align 8
  %105 = load ptr, ptr %12, align 8
  %106 = call zeroext i1 @php_xml_check_string_method_arg(i32 noundef 2, ptr noundef %104, ptr noundef %105, ptr noundef %9)
  %107 = zext i1 %106 to i8
  store i8 %107, ptr %16, align 1
  %108 = load i8, ptr %16, align 1
  %109 = trunc i8 %108 to i1
  %110 = zext i1 %109 to i32
  %111 = icmp eq i32 %110, 0
  br i1 %111, label %112, label %117

112:                                              ; preds = %97
  br label %113

113:                                              ; preds = %112
  %114 = load ptr, ptr getelementptr inbounds (%struct._zend_executor_globals, ptr @executor_globals, i32 0, i32 50), align 8
  %115 = icmp ne ptr %114, null
  call void @llvm.assume(i1 %115)
  br label %181

116:                                              ; No predecessors!
  br label %117

117:                                              ; preds = %116, %97
  %118 = load ptr, ptr %6, align 8
  %119 = getelementptr inbounds %struct.xml_parser, ptr %118, i32 0, i32 3
  %120 = load ptr, ptr %119, align 8
  %121 = load ptr, ptr %13, align 8
  %122 = call zeroext i1 @php_xml_check_string_method_arg(i32 noundef 3, ptr noundef %120, ptr noundef %121, ptr noundef %11)
  %123 = zext i1 %122 to i8
  store i8 %123, ptr %16, align 1
  %124 = load i8, ptr %16, align 1
  %125 = trunc i8 %124 to i1
  %126 = zext i1 %125 to i32
  %127 = icmp eq i32 %126, 0
  br i1 %127, label %128, label %133

128:                                              ; preds = %117
  br label %129

129:                                              ; preds = %128
  %130 = load ptr, ptr getelementptr inbounds (%struct._zend_executor_globals, ptr @executor_globals, i32 0, i32 50), align 8
  %131 = icmp ne ptr %130, null
  call void @llvm.assume(i1 %131)
  br label %181

132:                                              ; No predecessors!
  br label %133

133:                                              ; preds = %132, %117
  br label %165

134:                                              ; preds = %89
  call void @zend_release_fcall_info_cache(ptr noundef %9)
  call void @zend_release_fcall_info_cache(ptr noundef %11)
  %135 = load ptr, ptr %4, align 8
  %136 = getelementptr inbounds %struct._zend_execute_data, ptr %135, i32 0, i32 4
  %137 = getelementptr inbounds %struct._zval_struct, ptr %136, i32 0, i32 2
  %138 = load i32, ptr %137, align 4
  %139 = load ptr, ptr @xml_parser_ce, align 8
  %140 = call i32 (i32, ptr, ...) @zend_parse_parameters(i32 noundef %138, ptr noundef @.str.35, ptr noundef %7, ptr noundef %139, ptr noundef %17, ptr noundef %18)
  %141 = icmp eq i32 %140, -1
  br i1 %141, label %142, label %147

142:                                              ; preds = %134
  br label %143

143:                                              ; preds = %142
  %144 = load ptr, ptr getelementptr inbounds (%struct._zend_executor_globals, ptr @executor_globals, i32 0, i32 50), align 8
  %145 = icmp ne ptr %144, null
  call void @llvm.assume(i1 %145)
  br label %181

146:                                              ; No predecessors!
  br label %164

147:                                              ; preds = %134
  %148 = load ptr, ptr %17, align 8
  store ptr %148, ptr %3, align 8
  %149 = load ptr, ptr %3, align 8
  %150 = getelementptr inbounds %struct._zval_struct, ptr %149, i32 0, i32 1
  %151 = load i8, ptr %150, align 8
  %152 = zext i8 %151 to i32
  switch i32 %152, label %154 [
    i32 1, label %153
    i32 6, label %153
  ]

153:                                              ; preds = %147, %147
  br label %159

154:                                              ; preds = %147
  call void (i32, ptr, ...) @zend_argument_type_error(i32 noundef 2, ptr noundef @.str.36)
  br label %155

155:                                              ; preds = %154
  %156 = load ptr, ptr getelementptr inbounds (%struct._zend_executor_globals, ptr @executor_globals, i32 0, i32 50), align 8
  %157 = icmp ne ptr %156, null
  call void @llvm.assume(i1 %157)
  br label %181

158:                                              ; No predecessors!
  br label %159

159:                                              ; preds = %158, %153
  call void (i32, ptr, ...) @zend_argument_type_error(i32 noundef 3, ptr noundef @.str.36)
  br label %160

160:                                              ; preds = %159
  %161 = load ptr, ptr getelementptr inbounds (%struct._zend_executor_globals, ptr @executor_globals, i32 0, i32 50), align 8
  %162 = icmp ne ptr %161, null
  call void @llvm.assume(i1 %162)
  br label %181

163:                                              ; No predecessors!
  br label %164

164:                                              ; preds = %163, %146
  br label %165

165:                                              ; preds = %164, %133
  br label %166

166:                                              ; preds = %165, %88
  br label %167

167:                                              ; preds = %166, %59
  br label %168

168:                                              ; preds = %167, %26
  %169 = load ptr, ptr %6, align 8
  %170 = getelementptr inbounds %struct.xml_parser, ptr %169, i32 0, i32 4
  call void @xml_set_handler(ptr noundef %170, ptr noundef %9)
  %171 = load ptr, ptr %6, align 8
  %172 = getelementptr inbounds %struct.xml_parser, ptr %171, i32 0, i32 5
  call void @xml_set_handler(ptr noundef %172, ptr noundef %11)
  %173 = load ptr, ptr %6, align 8
  %174 = getelementptr inbounds %struct.xml_parser, ptr %173, i32 0, i32 0
  %175 = load ptr, ptr %174, align 8
  call void @php_XML_SetElementHandler(ptr noundef %175, ptr noundef @_xml_startElementHandler, ptr noundef @_xml_endElementHandler)
  br label %176

176:                                              ; preds = %168
  br label %177

177:                                              ; preds = %176
  %178 = load ptr, ptr %5, align 8
  %179 = getelementptr inbounds %struct._zval_struct, ptr %178, i32 0, i32 1
  store i32 3, ptr %179, align 8
  br label %180

180:                                              ; preds = %177
  br label %181

181:                                              ; preds = %180, %160, %155, %143, %129, %113, %84, %55
  ret void
}