; Function Attrs: nounwind uwtable
define hidden void @zif_xml_set_element_handler(ptr nocapture noundef readonly %0, ptr nocapture noundef writeonly %1) #0 {
  %3 = alloca ptr, align 8
  %4 = alloca %struct._zend_fcall_info, align 8
  %5 = alloca %struct._zend_fcall_info_cache, align 8
  %6 = alloca %struct._zend_fcall_info, align 8
  %7 = alloca %struct._zend_fcall_info_cache, align 8
  %8 = alloca ptr, align 8
  %9 = alloca ptr, align 8
  %10 = alloca ptr, align 8
  %11 = alloca ptr, align 8
  call void @llvm.memset.p0.i64(ptr noundef nonnull align 8 dereferenceable(64) %4, i8 0, i64 64, i1 false)
  call void @llvm.memset.p0.i64(ptr noundef nonnull align 8 dereferenceable(40) %5, i8 0, i64 40, i1 false)
  call void @llvm.memset.p0.i64(ptr noundef nonnull align 8 dereferenceable(64) %6, i8 0, i64 64, i1 false)
  call void @llvm.memset.p0.i64(ptr noundef nonnull align 8 dereferenceable(40) %7, i8 0, i64 40, i1 false)
  store ptr null, ptr %8, align 8
  store ptr null, ptr %9, align 8
  %12 = getelementptr inbounds i8, ptr %0, i64 44
  %13 = load i32, ptr %12, align 4
  %14 = load ptr, ptr @xml_parser_ce, align 8
  %15 = call i32 (i32, i32, ptr, ...) @zend_parse_parameters_ex(i32 noundef 2, i32 noundef %13, ptr noundef nonnull @.str.31, ptr noundef nonnull %3, ptr noundef %14, ptr noundef nonnull %4, ptr noundef nonnull %5, ptr noundef nonnull %6, ptr noundef nonnull %7) #16
  %16 = icmp eq i32 %15, 0
  br i1 %16, label %17, label %21

17:                                               ; preds = %2
  %18 = load ptr, ptr %3, align 8
  %19 = load ptr, ptr %18, align 8
  %20 = getelementptr inbounds i8, ptr %19, i64 -520
  br label %94

21:                                               ; preds = %2
  call void @zend_release_fcall_info_cache(ptr noundef nonnull %5) #16
  call void @zend_release_fcall_info_cache(ptr noundef nonnull %7) #16
  %22 = load i32, ptr %12, align 4
  %23 = load ptr, ptr @xml_parser_ce, align 8
  %24 = call i32 (i32, i32, ptr, ...) @zend_parse_parameters_ex(i32 noundef 2, i32 noundef %22, ptr noundef nonnull @.str.32, ptr noundef nonnull %3, ptr noundef %23, ptr noundef nonnull %4, ptr noundef nonnull %5, ptr noundef nonnull %9) #16
  %25 = icmp eq i32 %24, 0
  br i1 %25, label %26, label %37

26:                                               ; preds = %21
  %27 = load ptr, ptr %3, align 8
  %28 = load ptr, ptr %27, align 8
  %29 = getelementptr inbounds i8, ptr %28, i64 -520
  %30 = getelementptr inbounds i8, ptr %28, i64 -488
  %31 = load ptr, ptr %30, align 8
  %32 = load ptr, ptr %9, align 8
  %33 = call fastcc zeroext i1 @php_xml_check_string_method_arg(i32 noundef 3, ptr noundef %31, ptr noundef %32, ptr noundef nonnull %7)
  br i1 %33, label %94, label %34

34:                                               ; preds = %26
  call void @zend_release_fcall_info_cache(ptr noundef nonnull %5) #16
  call void @zend_release_fcall_info_cache(ptr noundef nonnull %7) #16
  %35 = load ptr, ptr getelementptr inbounds (%struct._zend_executor_globals, ptr @executor_globals, i64 0, i32 50), align 8
  %36 = icmp ne ptr %35, null
  call void @llvm.assume(i1 %36)
  br label %99

37:                                               ; preds = %21
  %38 = load i32, ptr %12, align 4
  %39 = load ptr, ptr @xml_parser_ce, align 8
  %40 = call i32 (i32, i32, ptr, ...) @zend_parse_parameters_ex(i32 noundef 2, i32 noundef %38, ptr noundef nonnull @.str.33, ptr noundef nonnull %3, ptr noundef %39, ptr noundef nonnull %8, ptr noundef nonnull %6, ptr noundef nonnull %7) #16
  %41 = icmp eq i32 %40, 0
  br i1 %41, label %42, label %53

42:                                               ; preds = %37
  %43 = load ptr, ptr %3, align 8
  %44 = load ptr, ptr %43, align 8
  %45 = getelementptr inbounds i8, ptr %44, i64 -520
  %46 = getelementptr inbounds i8, ptr %44, i64 -488
  %47 = load ptr, ptr %46, align 8
  %48 = load ptr, ptr %8, align 8
  %49 = call fastcc zeroext i1 @php_xml_check_string_method_arg(i32 noundef 2, ptr noundef %47, ptr noundef %48, ptr noundef nonnull %5)
  br i1 %49, label %94, label %50

50:                                               ; preds = %42
  call void @zend_release_fcall_info_cache(ptr noundef nonnull %5) #16
  call void @zend_release_fcall_info_cache(ptr noundef nonnull %7) #16
  %51 = load ptr, ptr getelementptr inbounds (%struct._zend_executor_globals, ptr @executor_globals, i64 0, i32 50), align 8
  %52 = icmp ne ptr %51, null
  call void @llvm.assume(i1 %52)
  br label %99

53:                                               ; preds = %37
  %54 = load i32, ptr %12, align 4
  %55 = load ptr, ptr @xml_parser_ce, align 8
  %56 = call i32 (i32, i32, ptr, ...) @zend_parse_parameters_ex(i32 noundef 2, i32 noundef %54, ptr noundef nonnull @.str.34, ptr noundef nonnull %3, ptr noundef %55, ptr noundef nonnull %8, ptr noundef nonnull %9) #16
  %57 = icmp eq i32 %56, 0
  call void @zend_release_fcall_info_cache(ptr noundef nonnull %5) #16
  call void @zend_release_fcall_info_cache(ptr noundef nonnull %7) #16
  br i1 %57, label %58, label %76

58:                                               ; preds = %53
  %59 = load ptr, ptr %3, align 8
  %60 = load ptr, ptr %59, align 8
  %61 = getelementptr inbounds i8, ptr %60, i64 -488
  %62 = load ptr, ptr %61, align 8
  %63 = load ptr, ptr %8, align 8
  %64 = call fastcc zeroext i1 @php_xml_check_string_method_arg(i32 noundef 2, ptr noundef %62, ptr noundef %63, ptr noundef nonnull %5)
  br i1 %64, label %68, label %65

65:                                               ; preds = %58
  %66 = load ptr, ptr getelementptr inbounds (%struct._zend_executor_globals, ptr @executor_globals, i64 0, i32 50), align 8
  %67 = icmp ne ptr %66, null
  call void @llvm.assume(i1 %67)
  br label %99

68:                                               ; preds = %58
  %69 = getelementptr inbounds i8, ptr %60, i64 -520
  %70 = load ptr, ptr %61, align 8
  %71 = load ptr, ptr %9, align 8
  %72 = call fastcc zeroext i1 @php_xml_check_string_method_arg(i32 noundef 3, ptr noundef %70, ptr noundef %71, ptr noundef nonnull %7)
  br i1 %72, label %94, label %73

73:                                               ; preds = %68
  %74 = load ptr, ptr getelementptr inbounds (%struct._zend_executor_globals, ptr @executor_globals, i64 0, i32 50), align 8
  %75 = icmp ne ptr %74, null
  call void @llvm.assume(i1 %75)
  br label %99

76:                                               ; preds = %53
  %77 = load i32, ptr %12, align 4
  %78 = load ptr, ptr @xml_parser_ce, align 8
  %79 = call i32 (i32, ptr, ...) @zend_parse_parameters(i32 noundef %77, ptr noundef nonnull @.str.35, ptr noundef nonnull %3, ptr noundef %78, ptr noundef nonnull %10, ptr noundef nonnull %11) #16
  %80 = icmp eq i32 %79, -1
  br i1 %80, label %81, label %84

81:                                               ; preds = %76
  %82 = load ptr, ptr getelementptr inbounds (%struct._zend_executor_globals, ptr @executor_globals, i64 0, i32 50), align 8
  %83 = icmp ne ptr %82, null
  call void @llvm.assume(i1 %83)
  br label %99

84:                                               ; preds = %76
  %85 = load ptr, ptr %10, align 8
  %86 = getelementptr inbounds i8, ptr %85, i64 8
  %87 = load i8, ptr %86, align 8
  switch i8 %87, label %88 [
    i8 1, label %91
    i8 6, label %91
  ]

88:                                               ; preds = %84
  call void (i32, ptr, ...) @zend_argument_type_error(i32 noundef 2, ptr noundef nonnull @.str.36) #16
  %89 = load ptr, ptr getelementptr inbounds (%struct._zend_executor_globals, ptr @executor_globals, i64 0, i32 50), align 8
  %90 = icmp ne ptr %89, null
  call void @llvm.assume(i1 %90)
  br label %99

91:                                               ; preds = %84, %84
  call void (i32, ptr, ...) @zend_argument_type_error(i32 noundef 3, ptr noundef nonnull @.str.36) #16
  %92 = load ptr, ptr getelementptr inbounds (%struct._zend_executor_globals, ptr @executor_globals, i64 0, i32 50), align 8
  %93 = icmp ne ptr %92, null
  call void @llvm.assume(i1 %93)
  br label %99

94:                                               ; preds = %26, %68, %42, %17
  %.0 = phi ptr [ %20, %17 ], [ %29, %26 ], [ %45, %42 ], [ %69, %68 ]
  %95 = getelementptr inbounds i8, ptr %.0, i64 40
  call fastcc void @xml_set_handler(ptr noundef nonnull %95, ptr noundef nonnull %5)
  %96 = getelementptr inbounds i8, ptr %.0, i64 80
  call fastcc void @xml_set_handler(ptr noundef nonnull %96, ptr noundef nonnull %7)
  %97 = load ptr, ptr %.0, align 8
  call void @php_XML_SetElementHandler(ptr noundef %97, ptr noundef nonnull @_xml_startElementHandler, ptr noundef nonnull @_xml_endElementHandler) #16
  %98 = getelementptr inbounds i8, ptr %1, i64 8
  store i32 3, ptr %98, align 8
  br label %99

99:                                               ; preds = %94, %91, %88, %81, %73, %65, %50, %34
  ret void
}